; Function Attrs: nounwind uwtable
define dso_local void @list_free(ptr noundef %0) local_unnamed_addr #0 {
  %2 = icmp eq ptr %0, null
  br i1 %2, label %list_free_private.exit, label %3

3:                                                ; preds = %1
  %4 = getelementptr inbounds nuw i8, ptr %0, i64 16
  %5 = load ptr, ptr %4, align 8
  %6 = getelementptr inbounds nuw i8, ptr %0, i64 24
  %.not.i = icmp eq ptr %5, %6
  br i1 %.not.i, label %8, label %7

7:                                                ; preds = %3
  tail call void @pfree(ptr noundef %5) #9
  br label %8

8:                                                ; preds = %7, %3
  tail call void @pfree(ptr noundef nonnull %0) #9
  br label %list_free_private.exit

list_free_private.exit:                           ; preds = %1, %8
  ret void
}